target datalayout = "e-m:e-p270:32:32-p271:32:32-p272:64:64-i64:64-i128:128-f80:128-n8:16:32:64-S128"
target triple = "x86_64-pc-linux-gnu"

%struct._packet_info = type { ptr, ptr, i32, i32, %struct.nstime_t, %struct.nstime_t, %struct.nstime_t, i8, ptr, ptr, ptr, ptr, %struct._address, %struct._address, %struct._address, %struct._address, %struct._address, %struct._address, i32, ptr, i8, [3 x i8], %struct.anon, i32, i32, i32, i32, ptr, i8, ptr, ptr, i16, i16, i32, i32, i16, i32, i32, ptr, ptr, ptr, i8, i8, i16, i16, i16, i32, i16, i16, ptr, ptr, ptr, ptr, ptr, i32, i32 }
%struct.nstime_t = type { i64, i32 }
%struct._address = type { i32, i32, ptr, ptr }
%struct.anon = type { i8, [3 x i8] }
%struct._asn1_ctx_t = type { i32, i32, i8, ptr, ptr, ptr, ptr, ptr, %struct.anon.0, %struct.anon.3, %struct.anon.4, ptr }
%struct.anon.0 = type { i32, i8, i8, i8, ptr, ptr, i32, i32, ptr, ptr, ptr, %union.anon }
%union.anon = type { %struct.anon.1 }
%struct.anon.1 = type { ptr }
%struct.anon.3 = type { ptr, ptr, ptr }
%struct.anon.4 = type { i32, i8, ptr, i32, i32, ptr, ptr, ptr, %union.anon.5 }
%union.anon.5 = type { %struct.anon.6 }
%struct.anon.6 = type { ptr }
%struct.nbap_private_data_t = type { i32, i16, i32, i32, i32, i32, i32, i32, i32, i32, i32, i32, i32, i32, i32, i32, i32, i32, i8, i32, i32, i32, i32, i32, i32, i32, i32, i8, i8, [256 x %struct.nbap_dch_channel_info_t], [8 x %struct.nbap_edch_channel_info_t], [8 x i32], [8 x %struct.nbap_hsdsch_channel_info_t], [8 x %struct.nbap_common_channel_info_t], ptr }
%struct.nbap_dch_channel_info_t = type { i32, i32, i32, [64 x i32], [64 x i32], i32, [64 x i32], [64 x i32] }
%struct.nbap_edch_channel_info_t = type { %struct._address, i16, i32, [16 x i8], [16 x i32], i8, [16 x i8] }
%struct.nbap_hsdsch_channel_info_t = type { %struct._address, i16, i32, i32, i8 }
%struct.nbap_common_channel_info_t = type { %struct._address, i16, i32 }

@hf_nbap_transportLayerAddress_ipv4 = internal global i32 0, align 4
@hf_nbap_transportLayerAddress_ipv6 = internal global i32 0, align 4
@hf_nbap_transportLayerAddress_nsap = internal global i32 0, align 4
@ett_nbap_TransportLayerAddress = internal global i32 0, align 4
@ett_nbap_TransportLayerAddress_nsap = internal global i32 0, align 4
@proto_nbap = internal global i32 0, align 4
@.str.9275 = private unnamed_addr constant [17 x i8] c"Padded NSAP Data\00", align 1

; Function Attrs: null_pointer_is_valid sspstrong uwtable
define internal ptr @nbap_get_private_data(ptr noundef %0) #0 {
  %2 = alloca ptr, align 8
  %3 = alloca i8, align 1
  %4 = alloca ptr, align 8
  store ptr %0, ptr %2, align 8
  call void @llvm.lifetime.start.p0(i64 1, ptr %3) #13
  call void @llvm.lifetime.start.p0(i64 8, ptr %4) #13
  %5 = load ptr, ptr %2, align 8
  %6 = getelementptr inbounds nuw %struct._packet_info, ptr %5, i32 0, i32 51
  %7 = load ptr, ptr %6, align 8
  %8 = load ptr, ptr %2, align 8
  %9 = load i32, ptr @proto_nbap, align 4
  %10 = call ptr @p_get_proto_data(ptr noundef %7, ptr noundef %8, i32 noundef %9, i32 noundef 0)
  store ptr %10, ptr %4, align 8
  %11 = load ptr, ptr %4, align 8
  %12 = icmp eq ptr %11, null
  br i1 %12, label %13, label %49

13:                                               ; preds = %1
  %14 = load ptr, ptr %2, align 8
  %15 = getelementptr inbounds nuw %struct._packet_info, ptr %14, i32 0, i32 51
  %16 = load ptr, ptr %15, align 8
  %17 = call noalias ptr @wmem_alloc0(ptr noundef %16, i64 noundef 268056) #14
  store ptr %17, ptr %4, align 8
  %18 = load ptr, ptr %2, align 8
  %19 = getelementptr inbounds nuw %struct._packet_info, ptr %18, i32 0, i32 51
  %20 = load ptr, ptr %19, align 8
  %21 = load ptr, ptr %2, align 8
  %22 = load i32, ptr @proto_nbap, align 4
  %23 = load ptr, ptr %4, align 8
  call void @p_add_proto_data(ptr noundef %20, ptr noundef %21, i32 noundef %22, i32 noundef 0, ptr noundef %23)
  %24 = load ptr, ptr %4, align 8
  %25 = getelementptr inbounds nuw %struct.nbap_private_data_t, ptr %24, i32 0, i32 17
  store i32 3, ptr %25, align 4
  %26 = load ptr, ptr %4, align 8
  %27 = getelementptr inbounds nuw %struct.nbap_private_data_t, ptr %26, i32 0, i32 27
  store i8 0, ptr %27, align 4
  %28 = load ptr, ptr %4, align 8
  %29 = getelementptr inbounds nuw %struct.nbap_private_data_t, ptr %28, i32 0, i32 3
  store i32 65535, ptr %29, align 4
  %30 = load ptr, ptr %4, align 8
  %31 = getelementptr inbounds nuw %struct.nbap_private_data_t, ptr %30, i32 0, i32 10
  store i32 65535, ptr %31, align 8
  %32 = load ptr, ptr %4, align 8
  %33 = getelementptr inbounds nuw %struct.nbap_private_data_t, ptr %32, i32 0, i32 28
  store i8 2, ptr %33, align 1
  store i8 0, ptr %3, align 1
  br label %34

34:                                               ; preds = %45, %13
  %35 = load i8, ptr %3, align 1
  %36 = zext i8 %35 to i32
  %37 = icmp slt i32 %36, 8
  br i1 %37, label %38, label %48

38:                                               ; preds = %34
  %39 = load ptr, ptr %4, align 8
  %40 = getelementptr inbounds nuw %struct.nbap_private_data_t, ptr %39, i32 0, i32 32
  %41 = load i8, ptr %3, align 1
  %42 = zext i8 %41 to i64
  %43 = getelementptr [8 x %struct.nbap_hsdsch_channel_info_t], ptr %40, i64 0, i64 %42
  %44 = getelementptr inbounds nuw %struct.nbap_hsdsch_channel_info_t, ptr %43, i32 0, i32 4
  store i8 1, ptr %44, align 4
  br label %45

45:                                               ; preds = %38
  %46 = load i8, ptr %3, align 1
  %47 = add i8 %46, 1
  store i8 %47, ptr %3, align 1
  br label %34, !llvm.loop !9

48:                                               ; preds = %34
  br label %49

49:                                               ; preds = %48, %1
  %50 = load ptr, ptr %4, align 8
  call void @llvm.lifetime.end.p0(i64 8, ptr %4) #13
  call void @llvm.lifetime.end.p0(i64 1, ptr %3) #13
  ret ptr %50
}

; Function Attrs: null_pointer_is_valid sspstrong uwtable
define internal i32 @dissect_nbap_TransportLayerAddress(ptr noundef %0, i32 noundef %1, ptr noundef %2, ptr noundef %3, i32 noundef %4) #0 {
  %6 = alloca i32, align 4
  %7 = alloca ptr, align 8
  %8 = alloca i32, align 4
  %9 = alloca ptr, align 8
  %10 = alloca ptr, align 8
  %11 = alloca i32, align 4
  %12 = alloca ptr, align 8
  %13 = alloca ptr, align 8
  %14 = alloca ptr, align 8
  %15 = alloca ptr, align 8
  %16 = alloca ptr, align 8
  %17 = alloca ptr, align 8
  %18 = alloca i32, align 4
  %19 = alloca ptr, align 8
  %20 = alloca i32, align 4
  store ptr %0, ptr %7, align 8
  store i32 %1, ptr %8, align 4
  store ptr %2, ptr %9, align 8
  store ptr %3, ptr %10, align 8
  store i32 %4, ptr %11, align 4
  call void @llvm.lifetime.start.p0(i64 8, ptr %12) #13
  store ptr null, ptr %12, align 8
  call void @llvm.lifetime.start.p0(i64 8, ptr %13) #13
  call void @llvm.lifetime.start.p0(i64 8, ptr %14) #13
  call void @llvm.lifetime.start.p0(i64 8, ptr %15) #13
  call void @llvm.lifetime.start.p0(i64 8, ptr %16) #13
  call void @llvm.lifetime.start.p0(i64 8, ptr %17) #13
  call void @llvm.lifetime.start.p0(i64 4, ptr %18) #13
  call void @llvm.lifetime.start.p0(i64 8, ptr %19) #13
  %21 = load ptr, ptr %9, align 8
  %22 = getelementptr inbounds nuw %struct._asn1_ctx_t, ptr %21, i32 0, i32 3
  %23 = load ptr, ptr %22, align 8
  %24 = call ptr @nbap_get_private_data(ptr noundef %23)
  store ptr %24, ptr %19, align 8
  %25 = load ptr, ptr %7, align 8
  %26 = load i32, ptr %8, align 4
  %27 = load ptr, ptr %9, align 8
  %28 = load ptr, ptr %10, align 8
  %29 = load i32, ptr %11, align 4
  %30 = call i32 @dissect_per_bit_string(ptr noundef %25, i32 noundef %26, ptr noundef %27, ptr noundef %28, i32 noundef %29, i32 noundef 1, i32 noundef 160, i1 noundef zeroext true, ptr noundef null, i32 noundef 0, ptr noundef %12, ptr noundef null)
  store i32 %30, ptr %8, align 4
  %31 = load ptr, ptr %12, align 8
  %32 = icmp ne ptr %31, null
  br i1 %32, label %35, label %33

33:                                               ; preds = %5
  %34 = load i32, ptr %8, align 4
  store i32 %34, ptr %6, align 4
  store i32 1, ptr %20, align 4
  br label %116

35:                                               ; preds = %5
  %36 = load ptr, ptr %12, align 8
  %37 = call i32 @tvb_reported_length(ptr noundef %36)
  store i32 %37, ptr %18, align 4
  %38 = load ptr, ptr %9, align 8
  %39 = getelementptr inbounds nuw %struct._asn1_ctx_t, ptr %38, i32 0, i32 4
  %40 = load ptr, ptr %39, align 8
  %41 = load i32, ptr @ett_nbap_TransportLayerAddress, align 4
  %42 = call ptr @proto_item_add_subtree(ptr noundef %40, i32 noundef %41)
  store ptr %42, ptr %14, align 8
  %43 = load i32, ptr %18, align 4
  %44 = icmp eq i32 %43, 4
  br i1 %44, label %45, label %55

45:                                               ; preds = %35
  %46 = load ptr, ptr %14, align 8
  %47 = load i32, ptr @hf_nbap_transportLayerAddress_ipv4, align 4
  %48 = load ptr, ptr %12, align 8
  %49 = load i32, ptr %18, align 4
  %50 = call ptr @proto_tree_add_item(ptr noundef %46, i32 noundef %47, ptr noundef %48, i32 noundef 0, i32 noundef %49, i32 noundef 0)
  %51 = load ptr, ptr %12, align 8
  %52 = call i32 @tvb_get_ipv4(ptr noundef %51, i32 noundef 0)
  %53 = load ptr, ptr %19, align 8
  %54 = getelementptr inbounds nuw %struct.nbap_private_data_t, ptr %53, i32 0, i32 0
  store i32 %52, ptr %54, align 8
  br label %55

55:                                               ; preds = %45, %35
  %56 = load i32, ptr %18, align 4
  %57 = icmp eq i32 %56, 16
  br i1 %57, label %58, label %64

58:                                               ; preds = %55
  %59 = load ptr, ptr %14, align 8
  %60 = load i32, ptr @hf_nbap_transportLayerAddress_ipv6, align 4
  %61 = load ptr, ptr %12, align 8
  %62 = load i32, ptr %18, align 4
  %63 = call ptr @proto_tree_add_item(ptr noundef %59, i32 noundef %60, ptr noundef %61, i32 noundef 0, i32 noundef %62, i32 noundef 0)
  br label %64

64:                                               ; preds = %58, %55
  %65 = load i32, ptr %18, align 4
  %66 = icmp eq i32 %65, 20
  br i1 %66, label %70, label %67

67:                                               ; preds = %64
  %68 = load i32, ptr %18, align 4
  %69 = icmp eq i32 %68, 7
  br i1 %69, label %70, label %114

70:                                               ; preds = %67, %64
  %71 = load i32, ptr %18, align 4
  %72 = icmp eq i32 %71, 7
  br i1 %72, label %73, label %92

73:                                               ; preds = %70
  %74 = load ptr, ptr %9, align 8
  %75 = getelementptr inbounds nuw %struct._asn1_ctx_t, ptr %74, i32 0, i32 3
  %76 = load ptr, ptr %75, align 8
  %77 = getelementptr inbounds nuw %struct._packet_info, ptr %76, i32 0, i32 51
  %78 = load ptr, ptr %77, align 8
  %79 = call noalias ptr @wmem_alloc0(ptr noundef %78, i64 noundef 20) #14
  store ptr %79, ptr %16, align 8
  %80 = load ptr, ptr %12, align 8
  %81 = load ptr, ptr %16, align 8
  %82 = load i32, ptr %18, align 4
  %83 = sext i32 %82 to i64
  %84 = call ptr @tvb_memcpy(ptr noundef %80, ptr noundef %81, i32 noundef 0, i64 noundef %83)
  %85 = load ptr, ptr %7, align 8
  %86 = load ptr, ptr %16, align 8
  %87 = call ptr @tvb_new_child_real_data(ptr noundef %85, ptr noundef %86, i32 noundef 20, i32 noundef 20)
  store ptr %87, ptr %17, align 8
  %88 = load ptr, ptr %9, align 8
  %89 = getelementptr inbounds nuw %struct._asn1_ctx_t, ptr %88, i32 0, i32 3
  %90 = load ptr, ptr %89, align 8
  %91 = load ptr, ptr %17, align 8
  call void @add_new_data_source(ptr noundef %90, ptr noundef %91, ptr noundef @.str.9275)
  br label %94

92:                                               ; preds = %70
  %93 = load ptr, ptr %12, align 8
  store ptr %93, ptr %17, align 8
  br label %94

94:                                               ; preds = %92, %73
  %95 = load ptr, ptr %14, align 8
  %96 = load i32, ptr @hf_nbap_transportLayerAddress_nsap, align 4
  %97 = load ptr, ptr %12, align 8
  %98 = load i32, ptr %18, align 4
  %99 = call ptr @proto_tree_add_item(ptr noundef %95, i32 noundef %96, ptr noundef %97, i32 noundef 0, i32 noundef %98, i32 noundef 0)
  store ptr %99, ptr %13, align 8
  %100 = load ptr, ptr %13, align 8
  %101 = load i32, ptr @ett_nbap_TransportLayerAddress_nsap, align 4
  %102 = call ptr @proto_item_add_subtree(ptr noundef %100, i32 noundef %101)
  store ptr %102, ptr %15, align 8
  %103 = load ptr, ptr %12, align 8
  %104 = call i32 @tvb_get_ntoh24(ptr noundef %103, i32 noundef 0)
  %105 = icmp eq i32 %104, 3473409
  br i1 %105, label %106, label %111

106:                                              ; preds = %94
  %107 = load ptr, ptr %12, align 8
  %108 = call i32 @tvb_get_ipv4(ptr noundef %107, i32 noundef 3)
  %109 = load ptr, ptr %19, align 8
  %110 = getelementptr inbounds nuw %struct.nbap_private_data_t, ptr %109, i32 0, i32 0
  store i32 %108, ptr %110, align 8
  br label %111

111:                                              ; preds = %106, %94
  %112 = load ptr, ptr %17, align 8
  %113 = load ptr, ptr %15, align 8
  call void @dissect_nsap(ptr noundef %112, i32 noundef 0, i32 noundef 20, ptr noundef %113)
  br label %114

114:                                              ; preds = %111, %67
  %115 = load i32, ptr %8, align 4
  store i32 %115, ptr %6, align 4
  store i32 1, ptr %20, align 4
  br label %116

116:                                              ; preds = %114, %33
  call void @llvm.lifetime.end.p0(i64 8, ptr %19) #13
  call void @llvm.lifetime.end.p0(i64 4, ptr %18) #13
  call void @llvm.lifetime.end.p0(i64 8, ptr %17) #13
  call void @llvm.lifetime.end.p0(i64 8, ptr %16) #13
  call void @llvm.lifetime.end.p0(i64 8, ptr %15) #13
  call void @llvm.lifetime.end.p0(i64 8, ptr %14) #13
  call void @llvm.lifetime.end.p0(i64 8, ptr %13) #13
  call void @llvm.lifetime.end.p0(i64 8, ptr %12) #13
  %117 = load i32, ptr %6, align 4
  ret i32 %117
}