; Function Attrs: null_pointer_is_valid sspstrong uwtable
define internal i32 @dissect_nbap_TransportLayerAddress(ptr noundef %0, i32 noundef %1, ptr noundef %2, ptr noundef %3, i32 noundef %4) #0 {
  %6 = alloca ptr, align 8
  call void @llvm.lifetime.start.p0(i64 8, ptr nonnull %6) #9
  store ptr null, ptr %6, align 8
  %7 = getelementptr inbounds nuw i8, ptr %2, i64 16
  %8 = load ptr, ptr %7, align 8
  %9 = getelementptr inbounds nuw i8, ptr %8, i64 408
  %10 = load ptr, ptr %9, align 8
  %11 = load i32, ptr @proto_nbap, align 4
  %12 = tail call ptr @p_get_proto_data(ptr noundef %10, ptr noundef %8, i32 noundef %11, i32 noundef 0)
  %13 = icmp eq ptr %12, null
  br i1 %13, label %14, label %nbap_get_private_data.exit

14:                                               ; preds = %5
  %15 = load ptr, ptr %9, align 8
  %16 = tail call noalias dereferenceable_or_null(268056) ptr @wmem_alloc0(ptr noundef %15, i64 noundef 268056) #10
  %17 = load ptr, ptr %9, align 8
  %18 = load i32, ptr @proto_nbap, align 4
  tail call void @p_add_proto_data(ptr noundef %17, ptr noundef %8, i32 noundef %18, i32 noundef 0, ptr noundef %16)
  %19 = getelementptr inbounds nuw i8, ptr %16, i64 68
  store i32 3, ptr %19, align 4
  %20 = getelementptr inbounds nuw i8, ptr %16, i64 108
  store i8 0, ptr %20, align 4
  %21 = getelementptr inbounds nuw i8, ptr %16, i64 12
  store i32 65535, ptr %21, align 4
  %22 = getelementptr inbounds nuw i8, ptr %16, i64 40
  store i32 65535, ptr %22, align 8
  %23 = getelementptr inbounds nuw i8, ptr %16, i64 109
  store i8 2, ptr %23, align 1
  %24 = getelementptr i8, ptr %16, i64 267508
  br label %25

25:                                               ; preds = %25, %14
  %indvars.iv.i = phi i64 [ 0, %14 ], [ %indvars.iv.next.i, %25 ]
  %.idx.i = mul nuw nsw i64 %indvars.iv.i, 40
  %26 = getelementptr i8, ptr %24, i64 %.idx.i
  store i8 1, ptr %26, align 4
  %indvars.iv.next.i = add nuw nsw i64 %indvars.iv.i, 1
  %exitcond.not.i = icmp eq i64 %indvars.iv.next.i, 8
  br i1 %exitcond.not.i, label %nbap_get_private_data.exit, label %25, !llvm.loop !9

nbap_get_private_data.exit:                       ; preds = %25, %5
  %.0.i = phi ptr [ %12, %5 ], [ %16, %25 ]
  %27 = call i32 @dissect_per_bit_string(ptr noundef %0, i32 noundef %1, ptr noundef %2, ptr noundef %3, i32 noundef %4, i32 noundef 1, i32 noundef 160, i1 noundef zeroext true, ptr noundef null, i32 noundef 0, ptr noundef nonnull %6, ptr noundef null)
  %28 = load ptr, ptr %6, align 8
  %.not = icmp eq ptr %28, null
  br i1 %.not, label %.thread, label %29

29:                                               ; preds = %nbap_get_private_data.exit
  %30 = call i32 @tvb_reported_length(ptr noundef nonnull %28)
  %31 = getelementptr inbounds nuw i8, ptr %2, i64 24
  %32 = load ptr, ptr %31, align 8
  %33 = load i32, ptr @ett_nbap_TransportLayerAddress, align 4
  %34 = call ptr @proto_item_add_subtree(ptr noundef %32, i32 noundef %33)
  switch i32 %30, label %.thread [
    i32 4, label %35
    i32 16, label %41
    i32 7, label %45
    i32 20, label %54
  ]

35:                                               ; preds = %29
  %36 = load i32, ptr @hf_nbap_transportLayerAddress_ipv4, align 4
  %37 = load ptr, ptr %6, align 8
  %38 = call ptr @proto_tree_add_item(ptr noundef %34, i32 noundef %36, ptr noundef %37, i32 noundef 0, i32 noundef 4, i32 noundef 0)
  %39 = load ptr, ptr %6, align 8
  %40 = call i32 @tvb_get_ipv4(ptr noundef %39, i32 noundef 0)
  store i32 %40, ptr %.0.i, align 8
  br label %.thread

41:                                               ; preds = %29
  %42 = load i32, ptr @hf_nbap_transportLayerAddress_ipv6, align 4
  %43 = load ptr, ptr %6, align 8
  %44 = call ptr @proto_tree_add_item(ptr noundef %34, i32 noundef %42, ptr noundef %43, i32 noundef 0, i32 noundef 16, i32 noundef 0)
  br label %.thread

45:                                               ; preds = %29
  %46 = load ptr, ptr %7, align 8
  %47 = getelementptr inbounds nuw i8, ptr %46, i64 408
  %48 = load ptr, ptr %47, align 8
  %49 = call noalias dereferenceable_or_null(20) ptr @wmem_alloc0(ptr noundef %48, i64 noundef 20) #10
  %50 = load ptr, ptr %6, align 8
  %51 = call ptr @tvb_memcpy(ptr noundef %50, ptr noundef %49, i32 noundef 0, i64 noundef 7)
  %52 = call ptr @tvb_new_child_real_data(ptr noundef %0, ptr noundef %49, i32 noundef 20, i32 noundef 20)
  %53 = load ptr, ptr %7, align 8
  call void @add_new_data_source(ptr noundef %53, ptr noundef %52, ptr noundef nonnull @.str.9275)
  %.pre = load ptr, ptr %6, align 8
  br label %56

54:                                               ; preds = %29
  %55 = load ptr, ptr %6, align 8
  br label %56

56:                                               ; preds = %54, %45
  %57 = phi ptr [ %.pre, %45 ], [ %55, %54 ]
  %.033 = phi ptr [ %52, %45 ], [ %55, %54 ]
  %58 = load i32, ptr @hf_nbap_transportLayerAddress_nsap, align 4
  %59 = call ptr @proto_tree_add_item(ptr noundef %34, i32 noundef %58, ptr noundef %57, i32 noundef 0, i32 noundef %30, i32 noundef 0)
  %60 = load i32, ptr @ett_nbap_TransportLayerAddress_nsap, align 4
  %61 = call ptr @proto_item_add_subtree(ptr noundef %59, i32 noundef %60)
  %62 = load ptr, ptr %6, align 8
  %63 = call i32 @tvb_get_ntoh24(ptr noundef %62, i32 noundef 0)
  %64 = icmp eq i32 %63, 3473409
  br i1 %64, label %65, label %68

65:                                               ; preds = %56
  %66 = load ptr, ptr %6, align 8
  %67 = call i32 @tvb_get_ipv4(ptr noundef %66, i32 noundef 3)
  store i32 %67, ptr %.0.i, align 8
  br label %68

68:                                               ; preds = %65, %56
  call void @dissect_nsap(ptr noundef %.033, i32 noundef 0, i32 noundef 20, ptr noundef %61)
  br label %.thread

.thread:                                          ; preds = %29, %41, %35, %68, %nbap_get_private_data.exit
  call void @llvm.lifetime.end.p0(i64 8, ptr nonnull %6) #9
  ret i32 %27
}